; Function Attrs: mustprogress nounwind uwtable
define hidden noundef ptr @_ZN7OrLNode8IdentityEP8PhaseGVN(ptr noundef nonnull align 8 dereferenceable(52) %0, ptr nocapture noundef readonly %1) unnamed_addr #0 align 2 {
  %3 = getelementptr inbounds i8, ptr %0, i64 8
  %4 = load ptr, ptr %3, align 8
  %5 = getelementptr inbounds i8, ptr %4, i64 8
  %6 = load ptr, ptr %5, align 8
  %7 = getelementptr inbounds i8, ptr %4, i64 16
  %8 = load ptr, ptr %7, align 8
  %9 = icmp eq ptr %6, %8
  br i1 %9, label %12, label %10

10:                                               ; preds = %2
  %11 = tail call noundef ptr @_ZN7AddNode8IdentityEP8PhaseGVN(ptr noundef nonnull align 8 dereferenceable(52) %0, ptr noundef %1)
  br label %12

12:                                               ; preds = %2, %10
  %.0 = phi ptr [ %11, %10 ], [ %6, %2 ]
  ret ptr %.0
}